target datalayout = "e-m:e-p270:32:32-p271:32:32-p272:64:64-i64:64-i128:128-f80:128-n8:16:32:64-S128"
target triple = "x86_64-pc-linux-gnu"

%struct.IDAMemRec = type { ptr, double, ptr, ptr, i32, double, double, ptr, i32, i32, ptr, ptr, i32, i32, i32, ptr, ptr, i32, i32, double, double, ptr, i32, i32, i32, i32, ptr, ptr, i32, ptr, ptr, ptr, i32, double, i32, i32, double, ptr, ptr, ptr, i32, ptr, ptr, i32, i32, i32, double, ptr, ptr, ptr, [6 x ptr], [6 x double], [6 x double], [6 x double], [6 x double], [6 x double], ptr, ptr, ptr, ptr, ptr, ptr, ptr, ptr, ptr, ptr, ptr, ptr, ptr, ptr, ptr, ptr, ptr, [6 x ptr], ptr, ptr, ptr, ptr, [6 x ptr], ptr, ptr, ptr, ptr, ptr, ptr, ptr, ptr, ptr, ptr, ptr, ptr, ptr, ptr, ptr, ptr, [6 x ptr], ptr, ptr, ptr, ptr, ptr, double, ptr, ptr, i32, i32, i32, i32, i32, i32, i32, i32, double, double, double, i32, double, i32, i32, i32, i32, i32, double, double, double, double, double, double, double, double, double, double, double, double, double, double, double, double, double, i32, i32, i32, i32, i64, double, double, double, double, double, double, double, double, double, i64, i64, i64, i64, i64, i64, i64, i64, i64, i64, i64, i64, i64, i64, i64, i64, i64, i64, i64, i64, i64, i64, i64, i64, i64, i64, double, i32, i32, i32, i32, i32, i32, i32, i32, i32, i32, i32, i32, i32, ptr, i32, ptr, i32, ptr, i32, ptr, ptr, ptr, ptr, ptr, ptr, i32, i32, ptr, ptr, ptr, ptr, ptr, ptr, ptr, double, i32, i32, ptr, i32, ptr, ptr, double, double, double, ptr, ptr, ptr, double, double, i32, i32, i64, ptr, i32, ptr, [5 x double], ptr, ptr, i32, ptr, i32 }

@.str = private unnamed_addr constant [111 x i8] c"generated/home/dtcxzyw/WorkSpace/Projects/compilers/llvm-opt-benchmark/bench/sundials/sundials/src/idas/idas.c\00", align 1
@.str.3 = private unnamed_addr constant [24 x i8] c"ida_mem = NULL illegal.\00", align 1
@.str.20 = private unnamed_addr constant [52 x i8] c"Illegal attempt to call before calling IDASensInit.\00", align 1
@.str.26 = private unnamed_addr constant [73 x i8] c"Forward sensitivity analysis for quadrature variables was not activated.\00", align 1
@.str.27 = private unnamed_addr constant [32 x i8] c"reltolQS < 0 illegal parameter.\00", align 1
@.str.28 = private unnamed_addr constant [35 x i8] c"abstolQS = NULL illegal parameter.\00", align 1
@.str.29 = private unnamed_addr constant [46 x i8] c"abstolQS has negative component(s) (illegal).\00", align 1
@__func__.IDAQuadSensSVtolerances = private unnamed_addr constant [24 x i8] c"IDAQuadSensSVtolerances\00", align 1

; Function Attrs: nounwind uwtable
define i32 @IDAQuadSensSVtolerances(ptr noundef %0, double noundef %1, ptr noundef %2) #0 {
  %4 = alloca i32, align 4
  %5 = alloca ptr, align 8
  %6 = alloca double, align 8
  %7 = alloca ptr, align 8
  %8 = alloca ptr, align 8
  %9 = alloca i32, align 4
  %10 = alloca i32, align 4
  %11 = alloca ptr, align 8
  %12 = alloca i32, align 4
  store ptr %0, ptr %5, align 8, !tbaa !126
  store double %1, ptr %6, align 8, !tbaa !123
  store ptr %2, ptr %7, align 8, !tbaa !125
  call void @llvm.lifetime.start.p0(i64 8, ptr %8) #10
  call void @llvm.lifetime.start.p0(i64 4, ptr %9) #10
  call void @llvm.lifetime.start.p0(i64 4, ptr %10) #10
  call void @llvm.lifetime.start.p0(i64 8, ptr %11) #10
  %13 = load ptr, ptr %5, align 8, !tbaa !126
  %14 = icmp eq ptr %13, null
  br i1 %14, label %15, label %16

15:                                               ; preds = %3
  call void (ptr, i32, i32, ptr, ptr, ptr, ...) @IDAProcessError(ptr noundef null, i32 noundef -20, i32 noundef 2107, ptr noundef @__func__.IDAQuadSensSVtolerances, ptr noundef @.str, ptr noundef @.str.3)
  store i32 -20, ptr %4, align 4
  store i32 1, ptr %12, align 4
  br label %179

16:                                               ; preds = %3
  %17 = load ptr, ptr %5, align 8, !tbaa !126
  store ptr %17, ptr %8, align 8, !tbaa !8
  %18 = load ptr, ptr %8, align 8, !tbaa !8
  %19 = getelementptr inbounds nuw %struct.IDAMemRec, ptr %18, i32 0, i32 23
  %20 = load i32, ptr %19, align 4, !tbaa !63
  %21 = icmp ne i32 %20, 0
  br i1 %21, label %24, label %22

22:                                               ; preds = %16
  %23 = load ptr, ptr %8, align 8, !tbaa !8
  call void (ptr, i32, i32, ptr, ptr, ptr, ...) @IDAProcessError(ptr noundef %23, i32 noundef -40, i32 noundef 2115, ptr noundef @__func__.IDAQuadSensSVtolerances, ptr noundef @.str, ptr noundef @.str.20)
  store i32 -40, ptr %4, align 4
  store i32 1, ptr %12, align 4
  br label %179

24:                                               ; preds = %16
  %25 = load ptr, ptr %8, align 8, !tbaa !8
  %26 = getelementptr inbounds nuw %struct.IDAMemRec, ptr %25, i32 0, i32 192
  %27 = load i32, ptr %26, align 8, !tbaa !98
  %28 = icmp ne i32 %27, 0
  br i1 %28, label %31, label %29

29:                                               ; preds = %24
  %30 = load ptr, ptr %8, align 8, !tbaa !8
  call void (ptr, i32, i32, ptr, ptr, ptr, ...) @IDAProcessError(ptr noundef %30, i32 noundef -50, i32 noundef 2123, ptr noundef @__func__.IDAQuadSensSVtolerances, ptr noundef @.str, ptr noundef @.str.26)
  store i32 -50, ptr %4, align 4
  store i32 1, ptr %12, align 4
  br label %179

31:                                               ; preds = %24
  %32 = load double, ptr %6, align 8, !tbaa !123
  %33 = fcmp olt double %32, 0.000000e+00
  br i1 %33, label %34, label %36

34:                                               ; preds = %31
  %35 = load ptr, ptr %8, align 8, !tbaa !8
  call void (ptr, i32, i32, ptr, ptr, ptr, ...) @IDAProcessError(ptr noundef %35, i32 noundef -22, i32 noundef 2132, ptr noundef @__func__.IDAQuadSensSVtolerances, ptr noundef @.str, ptr noundef @.str.27)
  store i32 -22, ptr %4, align 4
  store i32 1, ptr %12, align 4
  br label %179

36:                                               ; preds = %31
  %37 = load ptr, ptr %7, align 8, !tbaa !125
  %38 = icmp eq ptr %37, null
  br i1 %38, label %39, label %41

39:                                               ; preds = %36
  %40 = load ptr, ptr %8, align 8, !tbaa !8
  call void (ptr, i32, i32, ptr, ptr, ptr, ...) @IDAProcessError(ptr noundef %40, i32 noundef -22, i32 noundef 2139, ptr noundef @__func__.IDAQuadSensSVtolerances, ptr noundef @.str, ptr noundef @.str.28)
  store i32 -22, ptr %4, align 4
  store i32 1, ptr %12, align 4
  br label %179

41:                                               ; preds = %36
  %42 = load ptr, ptr %8, align 8, !tbaa !8
  %43 = getelementptr inbounds nuw %struct.IDAMemRec, ptr %42, i32 0, i32 24
  %44 = load i32, ptr %43, align 8, !tbaa !203
  %45 = sext i32 %44 to i64
  %46 = mul i64 %45, 8
  %47 = call noalias ptr @malloc(i64 noundef %46) #11
  store ptr %47, ptr %11, align 8, !tbaa !223
  store i32 0, ptr %9, align 4, !tbaa !114
  br label %48

48:                                               ; preds = %75, %41
  %49 = load i32, ptr %9, align 4, !tbaa !114
  %50 = load ptr, ptr %8, align 8, !tbaa !8
  %51 = getelementptr inbounds nuw %struct.IDAMemRec, ptr %50, i32 0, i32 24
  %52 = load i32, ptr %51, align 8, !tbaa !203
  %53 = icmp slt i32 %49, %52
  br i1 %53, label %54, label %78

54:                                               ; preds = %48
  %55 = load ptr, ptr %7, align 8, !tbaa !125
  %56 = load i32, ptr %9, align 4, !tbaa !114
  %57 = sext i32 %56 to i64
  %58 = getelementptr inbounds ptr, ptr %55, i64 %57
  %59 = load ptr, ptr %58, align 8, !tbaa !124
  %60 = call double @N_VMin(ptr noundef %59)
  %61 = load ptr, ptr %11, align 8, !tbaa !223
  %62 = load i32, ptr %9, align 4, !tbaa !114
  %63 = sext i32 %62 to i64
  %64 = getelementptr inbounds double, ptr %61, i64 %63
  store double %60, ptr %64, align 8, !tbaa !123
  %65 = load ptr, ptr %11, align 8, !tbaa !223
  %66 = load i32, ptr %9, align 4, !tbaa !114
  %67 = sext i32 %66 to i64
  %68 = getelementptr inbounds double, ptr %65, i64 %67
  %69 = load double, ptr %68, align 8, !tbaa !123
  %70 = fcmp olt double %69, 0.000000e+00
  br i1 %70, label %71, label %74

71:                                               ; preds = %54
  %72 = load ptr, ptr %8, align 8, !tbaa !8
  call void (ptr, i32, i32, ptr, ptr, ptr, ...) @IDAProcessError(ptr noundef %72, i32 noundef -22, i32 noundef 2150, ptr noundef @__func__.IDAQuadSensSVtolerances, ptr noundef @.str, ptr noundef @.str.29)
  %73 = load ptr, ptr %11, align 8, !tbaa !223
  call void @free(ptr noundef %73) #10
  store i32 -22, ptr %4, align 4
  store i32 1, ptr %12, align 4
  br label %179

74:                                               ; preds = %54
  br label %75

75:                                               ; preds = %74
  %76 = load i32, ptr %9, align 4, !tbaa !114
  %77 = add nsw i32 %76, 1
  store i32 %77, ptr %9, align 4, !tbaa !114
  br label %48

78:                                               ; preds = %48
  %79 = load ptr, ptr %8, align 8, !tbaa !8
  %80 = getelementptr inbounds nuw %struct.IDAMemRec, ptr %79, i32 0, i32 45
  store i32 2, ptr %80, align 8, !tbaa !81
  %81 = load double, ptr %6, align 8, !tbaa !123
  %82 = load ptr, ptr %8, align 8, !tbaa !8
  %83 = getelementptr inbounds nuw %struct.IDAMemRec, ptr %82, i32 0, i32 46
  store double %81, ptr %83, align 8, !tbaa !233
  %84 = load ptr, ptr %8, align 8, !tbaa !8
  %85 = getelementptr inbounds nuw %struct.IDAMemRec, ptr %84, i32 0, i32 190
  %86 = load i32, ptr %85, align 8, !tbaa !96
  %87 = icmp ne i32 %86, 0
  br i1 %87, label %132, label %88

88:                                               ; preds = %78
  %89 = load ptr, ptr %8, align 8, !tbaa !8
  %90 = getelementptr inbounds nuw %struct.IDAMemRec, ptr %89, i32 0, i32 24
  %91 = load i32, ptr %90, align 8, !tbaa !203
  %92 = load ptr, ptr %7, align 8, !tbaa !125
  %93 = getelementptr inbounds ptr, ptr %92, i64 0
  %94 = load ptr, ptr %93, align 8, !tbaa !124
  %95 = call ptr @N_VCloneVectorArray(i32 noundef %91, ptr noundef %94)
  %96 = load ptr, ptr %8, align 8, !tbaa !8
  %97 = getelementptr inbounds nuw %struct.IDAMemRec, ptr %96, i32 0, i32 48
  store ptr %95, ptr %97, align 8, !tbaa !235
  %98 = load ptr, ptr %8, align 8, !tbaa !8
  %99 = getelementptr inbounds nuw %struct.IDAMemRec, ptr %98, i32 0, i32 24
  %100 = load i32, ptr %99, align 8, !tbaa !203
  %101 = sext i32 %100 to i64
  %102 = mul i64 %101, 4
  %103 = call noalias ptr @malloc(i64 noundef %102) #11
  %104 = load ptr, ptr %8, align 8, !tbaa !8
  %105 = getelementptr inbounds nuw %struct.IDAMemRec, ptr %104, i32 0, i32 49
  store ptr %103, ptr %105, align 8, !tbaa !82
  %106 = load ptr, ptr %8, align 8, !tbaa !8
  %107 = getelementptr inbounds nuw %struct.IDAMemRec, ptr %106, i32 0, i32 24
  %108 = load i32, ptr %107, align 8, !tbaa !203
  %109 = sext i32 %108 to i64
  %110 = load ptr, ptr %8, align 8, !tbaa !8
  %111 = getelementptr inbounds nuw %struct.IDAMemRec, ptr %110, i32 0, i32 175
  %112 = load i64, ptr %111, align 8, !tbaa !192
  %113 = mul nsw i64 %109, %112
  %114 = load ptr, ptr %8, align 8, !tbaa !8
  %115 = getelementptr inbounds nuw %struct.IDAMemRec, ptr %114, i32 0, i32 177
  %116 = load i64, ptr %115, align 8, !tbaa !85
  %117 = add nsw i64 %116, %113
  store i64 %117, ptr %115, align 8, !tbaa !85
  %118 = load ptr, ptr %8, align 8, !tbaa !8
  %119 = getelementptr inbounds nuw %struct.IDAMemRec, ptr %118, i32 0, i32 24
  %120 = load i32, ptr %119, align 8, !tbaa !203
  %121 = sext i32 %120 to i64
  %122 = load ptr, ptr %8, align 8, !tbaa !8
  %123 = getelementptr inbounds nuw %struct.IDAMemRec, ptr %122, i32 0, i32 176
  %124 = load i64, ptr %123, align 8, !tbaa !193
  %125 = mul nsw i64 %121, %124
  %126 = load ptr, ptr %8, align 8, !tbaa !8
  %127 = getelementptr inbounds nuw %struct.IDAMemRec, ptr %126, i32 0, i32 178
  %128 = load i64, ptr %127, align 8, !tbaa !86
  %129 = add nsw i64 %128, %125
  store i64 %129, ptr %127, align 8, !tbaa !86
  %130 = load ptr, ptr %8, align 8, !tbaa !8
  %131 = getelementptr inbounds nuw %struct.IDAMemRec, ptr %130, i32 0, i32 190
  store i32 1, ptr %131, align 8, !tbaa !96
  br label %132

132:                                              ; preds = %88, %78
  store i32 0, ptr %9, align 4, !tbaa !114
  br label %133

133:                                              ; preds = %159, %132
  %134 = load i32, ptr %9, align 4, !tbaa !114
  %135 = load ptr, ptr %8, align 8, !tbaa !8
  %136 = getelementptr inbounds nuw %struct.IDAMemRec, ptr %135, i32 0, i32 24
  %137 = load i32, ptr %136, align 8, !tbaa !203
  %138 = icmp slt i32 %134, %137
  br i1 %138, label %139, label %162

139:                                              ; preds = %133
  %140 = load ptr, ptr %8, align 8, !tbaa !8
  %141 = getelementptr inbounds nuw %struct.IDAMemRec, ptr %140, i32 0, i32 234
  %142 = load ptr, ptr %141, align 8, !tbaa !134
  %143 = load i32, ptr %9, align 4, !tbaa !114
  %144 = sext i32 %143 to i64
  %145 = getelementptr inbounds double, ptr %142, i64 %144
  store double 1.000000e+00, ptr %145, align 8, !tbaa !123
  %146 = load ptr, ptr %11, align 8, !tbaa !223
  %147 = load i32, ptr %9, align 4, !tbaa !114
  %148 = sext i32 %147 to i64
  %149 = getelementptr inbounds double, ptr %146, i64 %148
  %150 = load double, ptr %149, align 8, !tbaa !123
  %151 = fcmp oeq double %150, 0.000000e+00
  %152 = zext i1 %151 to i32
  %153 = load ptr, ptr %8, align 8, !tbaa !8
  %154 = getelementptr inbounds nuw %struct.IDAMemRec, ptr %153, i32 0, i32 49
  %155 = load ptr, ptr %154, align 8, !tbaa !82
  %156 = load i32, ptr %9, align 4, !tbaa !114
  %157 = sext i32 %156 to i64
  %158 = getelementptr inbounds i32, ptr %155, i64 %157
  store i32 %152, ptr %158, align 4, !tbaa !114
  br label %159

159:                                              ; preds = %139
  %160 = load i32, ptr %9, align 4, !tbaa !114
  %161 = add nsw i32 %160, 1
  store i32 %161, ptr %9, align 4, !tbaa !114
  br label %133

162:                                              ; preds = %133
  %163 = load ptr, ptr %11, align 8, !tbaa !223
  call void @free(ptr noundef %163) #10
  %164 = load ptr, ptr %8, align 8, !tbaa !8
  %165 = getelementptr inbounds nuw %struct.IDAMemRec, ptr %164, i32 0, i32 24
  %166 = load i32, ptr %165, align 8, !tbaa !203
  %167 = load ptr, ptr %8, align 8, !tbaa !8
  %168 = getelementptr inbounds nuw %struct.IDAMemRec, ptr %167, i32 0, i32 234
  %169 = load ptr, ptr %168, align 8, !tbaa !134
  %170 = load ptr, ptr %7, align 8, !tbaa !125
  %171 = load ptr, ptr %8, align 8, !tbaa !8
  %172 = getelementptr inbounds nuw %struct.IDAMemRec, ptr %171, i32 0, i32 48
  %173 = load ptr, ptr %172, align 8, !tbaa !235
  %174 = call i32 @N_VScaleVectorArray(i32 noundef %166, ptr noundef %169, ptr noundef %170, ptr noundef %173)
  store i32 %174, ptr %10, align 4, !tbaa !114
  %175 = load i32, ptr %10, align 4, !tbaa !114
  %176 = icmp ne i32 %175, 0
  br i1 %176, label %177, label %178

177:                                              ; preds = %162
  store i32 -28, ptr %4, align 4
  store i32 1, ptr %12, align 4
  br label %179

178:                                              ; preds = %162
  store i32 0, ptr %4, align 4
  store i32 1, ptr %12, align 4
  br label %179

179:                                              ; preds = %178, %177, %71, %39, %34, %29, %22, %15
  call void @llvm.lifetime.end.p0(i64 8, ptr %11) #10
  call void @llvm.lifetime.end.p0(i64 4, ptr %10) #10
  call void @llvm.lifetime.end.p0(i64 4, ptr %9) #10
  call void @llvm.lifetime.end.p0(i64 8, ptr %8) #10
  %180 = load i32, ptr %4, align 4
  ret i32 %180
}