; Function Attrs: nounwind uwtable
define range(i32 -50, 1) i32 @IDAQuadSensSVtolerances(ptr noundef captures(address_is_null) %0, double noundef %1, ptr noundef %2) local_unnamed_addr #0 {
  %4 = icmp eq ptr %0, null
  br i1 %4, label %5, label %6

5:                                                ; preds = %3
  tail call void (ptr, i32, i32, ptr, ptr, ptr, ...) @IDAProcessError(ptr noundef null, i32 noundef -20, i32 noundef 2107, ptr noundef nonnull @__func__.IDAQuadSensSVtolerances, ptr noundef nonnull @.str, ptr noundef nonnull @.str.3)
  br label %82

6:                                                ; preds = %3
  %7 = getelementptr inbounds nuw i8, ptr %0, i64 156
  %8 = load i32, ptr %7, align 4, !tbaa !45
  %.not = icmp eq i32 %8, 0
  br i1 %.not, label %9, label %10

9:                                                ; preds = %6
  tail call void (ptr, i32, i32, ptr, ptr, ptr, ...) @IDAProcessError(ptr noundef nonnull %0, i32 noundef -40, i32 noundef 2115, ptr noundef nonnull @__func__.IDAQuadSensSVtolerances, ptr noundef nonnull @.str, ptr noundef nonnull @.str.20)
  br label %82

10:                                               ; preds = %6
  %11 = getelementptr inbounds nuw i8, ptr %0, i64 1728
  %12 = load i32, ptr %11, align 8, !tbaa !198
  %.not57 = icmp eq i32 %12, 0
  br i1 %.not57, label %13, label %14

13:                                               ; preds = %10
  tail call void (ptr, i32, i32, ptr, ptr, ptr, ...) @IDAProcessError(ptr noundef nonnull %0, i32 noundef -50, i32 noundef 2123, ptr noundef nonnull @__func__.IDAQuadSensSVtolerances, ptr noundef nonnull @.str, ptr noundef nonnull @.str.26)
  br label %82

14:                                               ; preds = %10
  %15 = fcmp olt double %1, 0.000000e+00
  br i1 %15, label %16, label %17

16:                                               ; preds = %14
  tail call void (ptr, i32, i32, ptr, ptr, ptr, ...) @IDAProcessError(ptr noundef nonnull %0, i32 noundef -22, i32 noundef 2132, ptr noundef nonnull @__func__.IDAQuadSensSVtolerances, ptr noundef nonnull @.str, ptr noundef nonnull @.str.27)
  br label %82

17:                                               ; preds = %14
  %18 = icmp eq ptr %2, null
  br i1 %18, label %19, label %20

19:                                               ; preds = %17
  tail call void (ptr, i32, i32, ptr, ptr, ptr, ...) @IDAProcessError(ptr noundef nonnull %0, i32 noundef -22, i32 noundef 2139, ptr noundef nonnull @__func__.IDAQuadSensSVtolerances, ptr noundef nonnull @.str, ptr noundef nonnull @.str.28)
  br label %82

20:                                               ; preds = %17
  %21 = getelementptr inbounds nuw i8, ptr %0, i64 160
  %22 = load i32, ptr %21, align 8, !tbaa !167
  %23 = sext i32 %22 to i64
  %24 = shl nsw i64 %23, 3
  %25 = tail call noalias ptr @malloc(i64 noundef %24) #15
  %26 = icmp sgt i32 %22, 0
  br i1 %26, label %.lr.ph, label %._crit_edge

27:                                               ; preds = %.lr.ph
  %indvars.iv.next = add nuw nsw i64 %indvars.iv, 1
  %28 = load i32, ptr %21, align 8, !tbaa !167
  %29 = sext i32 %28 to i64
  %30 = icmp slt i64 %indvars.iv.next, %29
  br i1 %30, label %.lr.ph, label %._crit_edge

.lr.ph:                                           ; preds = %20, %27
  %indvars.iv = phi i64 [ %indvars.iv.next, %27 ], [ 0, %20 ]
  %31 = getelementptr inbounds nuw ptr, ptr %2, i64 %indvars.iv
  %32 = load ptr, ptr %31, align 8, !tbaa !83
  %33 = tail call double @N_VMin(ptr noundef %32) #14
  %34 = getelementptr inbounds nuw double, ptr %25, i64 %indvars.iv
  store double %33, ptr %34, align 8, !tbaa !87
  %35 = fcmp olt double %33, 0.000000e+00
  br i1 %35, label %36, label %27

36:                                               ; preds = %.lr.ph
  tail call void (ptr, i32, i32, ptr, ptr, ptr, ...) @IDAProcessError(ptr noundef nonnull %0, i32 noundef -22, i32 noundef 2150, ptr noundef nonnull @__func__.IDAQuadSensSVtolerances, ptr noundef nonnull @.str, ptr noundef nonnull @.str.29)
  tail call void @free(ptr noundef nonnull %25) #14
  br label %82

._crit_edge:                                      ; preds = %27, %20
  %.lcssa60 = phi i32 [ %22, %20 ], [ %28, %27 ]
  %37 = getelementptr inbounds nuw i8, ptr %0, i64 304
  store i32 2, ptr %37, align 8, !tbaa !60
  %38 = getelementptr inbounds nuw i8, ptr %0, i64 312
  store double %1, ptr %38, align 8, !tbaa !199
  %39 = getelementptr inbounds nuw i8, ptr %0, i64 1720
  %40 = load i32, ptr %39, align 8, !tbaa !202
  %.not58 = icmp eq i32 %40, 0
  br i1 %.not58, label %41, label %62

41:                                               ; preds = %._crit_edge
  %42 = load ptr, ptr %2, align 8, !tbaa !83
  %43 = tail call ptr @N_VCloneVectorArray(i32 noundef %.lcssa60, ptr noundef %42) #14
  %44 = getelementptr inbounds nuw i8, ptr %0, i64 328
  store ptr %43, ptr %44, align 8, !tbaa !203
  %45 = load i32, ptr %21, align 8, !tbaa !167
  %46 = sext i32 %45 to i64
  %47 = shl nsw i64 %46, 2
  %48 = tail call noalias ptr @malloc(i64 noundef %47) #15
  %49 = getelementptr inbounds nuw i8, ptr %0, i64 336
  store ptr %48, ptr %49, align 8, !tbaa !61
  %50 = getelementptr inbounds nuw i8, ptr %0, i64 1640
  %51 = load i64, ptr %50, align 8, !tbaa !154
  %52 = mul nsw i64 %51, %46
  %53 = getelementptr inbounds nuw i8, ptr %0, i64 1656
  %54 = load i64, ptr %53, align 8, !tbaa !64
  %55 = add nsw i64 %54, %52
  store i64 %55, ptr %53, align 8, !tbaa !64
  %56 = getelementptr inbounds nuw i8, ptr %0, i64 1648
  %57 = load i64, ptr %56, align 8, !tbaa !155
  %58 = mul nsw i64 %57, %46
  %59 = getelementptr inbounds nuw i8, ptr %0, i64 1664
  %60 = load i64, ptr %59, align 8, !tbaa !65
  %61 = add nsw i64 %60, %58
  store i64 %61, ptr %59, align 8, !tbaa !65
  store i32 1, ptr %39, align 8, !tbaa !202
  br label %62

62:                                               ; preds = %41, %._crit_edge
  %63 = phi i32 [ %45, %41 ], [ %.lcssa60, %._crit_edge ]
  %64 = icmp sgt i32 %63, 0
  %65 = getelementptr inbounds nuw i8, ptr %0, i64 2040
  %66 = load ptr, ptr %65, align 8, !tbaa !122
  br i1 %64, label %.lr.ph65, label %._crit_edge66

.lr.ph65:                                         ; preds = %62
  %67 = getelementptr inbounds nuw i8, ptr %0, i64 336
  %68 = load ptr, ptr %67, align 8, !tbaa !61
  br label %69

69:                                               ; preds = %.lr.ph65, %69
  %indvars.iv71 = phi i64 [ 0, %.lr.ph65 ], [ %indvars.iv.next72, %69 ]
  %70 = getelementptr inbounds nuw double, ptr %66, i64 %indvars.iv71
  store double 1.000000e+00, ptr %70, align 8, !tbaa !87
  %71 = getelementptr inbounds nuw double, ptr %25, i64 %indvars.iv71
  %72 = load double, ptr %71, align 8, !tbaa !87
  %73 = fcmp oeq double %72, 0.000000e+00
  %74 = zext i1 %73 to i32
  %75 = getelementptr inbounds nuw i32, ptr %68, i64 %indvars.iv71
  store i32 %74, ptr %75, align 4, !tbaa !85
  %indvars.iv.next72 = add nuw nsw i64 %indvars.iv71, 1
  %76 = load i32, ptr %21, align 8, !tbaa !167
  %77 = sext i32 %76 to i64
  %78 = icmp slt i64 %indvars.iv.next72, %77
  br i1 %78, label %69, label %._crit_edge66

._crit_edge66:                                    ; preds = %69, %62
  %.lcssa = phi i32 [ %63, %62 ], [ %76, %69 ]
  tail call void @free(ptr noundef %25) #14
  %79 = getelementptr inbounds nuw i8, ptr %0, i64 328
  %80 = load ptr, ptr %79, align 8, !tbaa !203
  %81 = tail call i32 @N_VScaleVectorArray(i32 noundef %.lcssa, ptr noundef %66, ptr noundef nonnull %2, ptr noundef %80) #14
  %.not59 = icmp eq i32 %81, 0
  %. = select i1 %.not59, i32 0, i32 -28
  br label %82

82:                                               ; preds = %._crit_edge66, %36, %19, %16, %13, %9, %5
  %.0 = phi i32 [ -20, %5 ], [ -22, %16 ], [ -22, %19 ], [ -22, %36 ], [ -50, %13 ], [ -40, %9 ], [ %., %._crit_edge66 ]
  ret i32 %.0
}